target datalayout = "e-m:e-p270:32:32-p271:32:32-p272:64:64-i64:64-i128:128-f80:128-n8:16:32:64-S128"
target triple = "x86_64-pc-linux-gnu"

%struct.Nwk_Man_t_ = type { ptr, ptr, ptr, ptr, ptr, [5 x i32], i32, ptr, ptr, ptr, ptr, ptr, i32, i32, i32, i32, i32 }
%struct.Nwk_Obj_t_ = type { ptr, ptr, ptr, %union.anon, i32, i32, i32, i32, float, float, float, i32, i32, i32, ptr }
%union.anon = type { ptr }
%struct.Vec_Ptr_t_ = type { i32, i32, ptr }

; Function Attrs: inlinehint nounwind uwtable
define internal ptr @Vec_PtrEntry(ptr noundef %0, i32 noundef %1) #2 {
  %3 = alloca ptr, align 8
  %4 = alloca i32, align 4
  store ptr %0, ptr %3, align 8, !tbaa !29
  store i32 %1, ptr %4, align 4, !tbaa !8
  %5 = load ptr, ptr %3, align 8, !tbaa !29
  %6 = getelementptr inbounds nuw %struct.Vec_Ptr_t_, ptr %5, i32 0, i32 2
  %7 = load ptr, ptr %6, align 8, !tbaa !32
  %8 = load i32, ptr %4, align 4, !tbaa !8
  %9 = sext i32 %8 to i64
  %10 = getelementptr inbounds ptr, ptr %7, i64 %9
  %11 = load ptr, ptr %10, align 8, !tbaa !33
  ret ptr %11
}

; Function Attrs: inlinehint nounwind uwtable
define internal i32 @Nwk_ObjFaninNum(ptr noundef %0) #2 {
  %2 = alloca ptr, align 8
  store ptr %0, ptr %2, align 8, !tbaa !18
  %3 = load ptr, ptr %2, align 8, !tbaa !18
  %4 = getelementptr inbounds nuw %struct.Nwk_Obj_t_, ptr %3, i32 0, i32 11
  %5 = load i32, ptr %4, align 4, !tbaa !38
  ret i32 %5
}

; Function Attrs: inlinehint nounwind uwtable
define internal i32 @Nwk_ObjIsNode(ptr noundef %0) #2 {
  %2 = alloca ptr, align 8
  store ptr %0, ptr %2, align 8, !tbaa !18
  %3 = load ptr, ptr %2, align 8, !tbaa !18
  %4 = getelementptr inbounds nuw %struct.Nwk_Obj_t_, ptr %3, i32 0, i32 4
  %5 = load i32, ptr %4, align 8
  %6 = and i32 %5, 7
  %7 = icmp eq i32 %6, 3
  %8 = zext i1 %7 to i32
  ret i32 %8
}

; Function Attrs: inlinehint nounwind uwtable
define internal i32 @Abc_MaxInt(i32 noundef %0, i32 noundef %1) #2 {
  %3 = alloca i32, align 4
  %4 = alloca i32, align 4
  store i32 %0, ptr %3, align 4, !tbaa !8
  store i32 %1, ptr %4, align 4, !tbaa !8
  %5 = load i32, ptr %3, align 4, !tbaa !8
  %6 = load i32, ptr %4, align 4, !tbaa !8
  %7 = icmp sgt i32 %5, %6
  br i1 %7, label %8, label %10

8:                                                ; preds = %2
  %9 = load i32, ptr %3, align 4, !tbaa !8
  br label %12

10:                                               ; preds = %2
  %11 = load i32, ptr %4, align 4, !tbaa !8
  br label %12

12:                                               ; preds = %10, %8
  %13 = phi i32 [ %9, %8 ], [ %11, %10 ]
  ret i32 %13
}

; Function Attrs: inlinehint nounwind uwtable
define internal i32 @Nwk_ObjLevel(ptr noundef %0) #2 {
  %2 = alloca ptr, align 8
  store ptr %0, ptr %2, align 8, !tbaa !18
  %3 = load ptr, ptr %2, align 8, !tbaa !18
  %4 = getelementptr inbounds nuw %struct.Nwk_Obj_t_, ptr %3, i32 0, i32 7
  %5 = load i32, ptr %4, align 4, !tbaa !78
  ret i32 %5
}

; Function Attrs: inlinehint nounwind uwtable
define internal ptr @Nwk_ManCo(ptr noundef %0, i32 noundef %1) #2 {
  %3 = alloca ptr, align 8
  %4 = alloca i32, align 4
  store ptr %0, ptr %3, align 8, !tbaa !3
  store i32 %1, ptr %4, align 4, !tbaa !8
  %5 = load ptr, ptr %3, align 8, !tbaa !3
  %6 = getelementptr inbounds nuw %struct.Nwk_Man_t_, ptr %5, i32 0, i32 3
  %7 = load ptr, ptr %6, align 8, !tbaa !67
  %8 = load i32, ptr %4, align 4, !tbaa !8
  %9 = call ptr @Vec_PtrEntry(ptr noundef %7, i32 noundef %8)
  ret ptr %9
}

; Function Attrs: inlinehint nounwind uwtable
define internal i32 @Nwk_ObjIsLatch(ptr noundef %0) #2 {
  %2 = alloca ptr, align 8
  store ptr %0, ptr %2, align 8, !tbaa !18
  %3 = load ptr, ptr %2, align 8, !tbaa !18
  %4 = getelementptr inbounds nuw %struct.Nwk_Obj_t_, ptr %3, i32 0, i32 4
  %5 = load i32, ptr %4, align 8
  %6 = and i32 %5, 7
  %7 = icmp eq i32 %6, 4
  %8 = zext i1 %7 to i32
  ret i32 %8
}

; Function Attrs: inlinehint nounwind uwtable
define internal i32 @Nwk_ObjIsCi(ptr noundef %0) #2 {
  %2 = alloca ptr, align 8
  store ptr %0, ptr %2, align 8, !tbaa !18
  %3 = load ptr, ptr %2, align 8, !tbaa !18
  %4 = getelementptr inbounds nuw %struct.Nwk_Obj_t_, ptr %3, i32 0, i32 4
  %5 = load i32, ptr %4, align 8
  %6 = and i32 %5, 7
  %7 = icmp eq i32 %6, 1
  %8 = zext i1 %7 to i32
  ret i32 %8
}

; Function Attrs: nounwind uwtable
define i32 @Nwk_ObjLevelNew(ptr noundef %0) #0 {
  %2 = alloca i32, align 4
  %3 = alloca ptr, align 8
  %4 = alloca ptr, align 8
  %5 = alloca ptr, align 8
  %6 = alloca i32, align 4
  %7 = alloca i32, align 4
  %8 = alloca i32, align 4
  %9 = alloca i32, align 4
  %10 = alloca i32, align 4
  %11 = alloca i32, align 4
  store ptr %0, ptr %3, align 8, !tbaa !18
  call void @llvm.lifetime.start.p0(i64 8, ptr %4) #8
  %12 = load ptr, ptr %3, align 8, !tbaa !18
  %13 = getelementptr inbounds nuw %struct.Nwk_Obj_t_, ptr %12, i32 0, i32 0
  %14 = load ptr, ptr %13, align 8, !tbaa !46
  %15 = getelementptr inbounds nuw %struct.Nwk_Man_t_, ptr %14, i32 0, i32 8
  %16 = load ptr, ptr %15, align 8, !tbaa !65
  store ptr %16, ptr %4, align 8, !tbaa !79
  call void @llvm.lifetime.start.p0(i64 8, ptr %5) #8
  call void @llvm.lifetime.start.p0(i64 4, ptr %6) #8
  call void @llvm.lifetime.start.p0(i64 4, ptr %7) #8
  call void @llvm.lifetime.start.p0(i64 4, ptr %8) #8
  call void @llvm.lifetime.start.p0(i64 4, ptr %9) #8
  call void @llvm.lifetime.start.p0(i64 4, ptr %10) #8
  store i32 0, ptr %10, align 4, !tbaa !8
  %17 = load ptr, ptr %3, align 8, !tbaa !18
  %18 = call i32 @Nwk_ObjIsCi(ptr noundef %17)
  %19 = icmp ne i32 %18, 0
  br i1 %19, label %24, label %20

20:                                               ; preds = %1
  %21 = load ptr, ptr %3, align 8, !tbaa !18
  %22 = call i32 @Nwk_ObjIsLatch(ptr noundef %21)
  %23 = icmp ne i32 %22, 0
  br i1 %23, label %24, label %68

24:                                               ; preds = %20, %1
  %25 = load ptr, ptr %4, align 8, !tbaa !79
  %26 = icmp ne ptr %25, null
  br i1 %26, label %27, label %66

27:                                               ; preds = %24
  %28 = load ptr, ptr %4, align 8, !tbaa !79
  %29 = load ptr, ptr %3, align 8, !tbaa !18
  %30 = getelementptr inbounds nuw %struct.Nwk_Obj_t_, ptr %29, i32 0, i32 4
  %31 = load i32, ptr %30, align 8
  %32 = lshr i32 %31, 7
  %33 = call i32 @Tim_ManBoxForCi(ptr noundef %28, i32 noundef %32)
  store i32 %33, ptr %7, align 4, !tbaa !8
  %34 = load i32, ptr %7, align 4, !tbaa !8
  %35 = icmp sge i32 %34, 0
  br i1 %35, label %36, label %65

36:                                               ; preds = %27
  %37 = load ptr, ptr %4, align 8, !tbaa !79
  %38 = load i32, ptr %7, align 4, !tbaa !8
  %39 = call i32 @Tim_ManBoxInputFirst(ptr noundef %37, i32 noundef %38)
  store i32 %39, ptr %8, align 4, !tbaa !8
  %40 = load ptr, ptr %4, align 8, !tbaa !79
  %41 = load i32, ptr %7, align 4, !tbaa !8
  %42 = call i32 @Tim_ManBoxInputNum(ptr noundef %40, i32 noundef %41)
  store i32 %42, ptr %9, align 4, !tbaa !8
  store i32 0, ptr %6, align 4, !tbaa !8
  br label %43

43:                                               ; preds = %59, %36
  %44 = load i32, ptr %6, align 4, !tbaa !8
  %45 = load i32, ptr %9, align 4, !tbaa !8
  %46 = icmp slt i32 %44, %45
  br i1 %46, label %47, label %62

47:                                               ; preds = %43
  %48 = load ptr, ptr %3, align 8, !tbaa !18
  %49 = getelementptr inbounds nuw %struct.Nwk_Obj_t_, ptr %48, i32 0, i32 0
  %50 = load ptr, ptr %49, align 8, !tbaa !46
  %51 = load i32, ptr %8, align 4, !tbaa !8
  %52 = load i32, ptr %6, align 4, !tbaa !8
  %53 = add nsw i32 %51, %52
  %54 = call ptr @Nwk_ManCo(ptr noundef %50, i32 noundef %53)
  store ptr %54, ptr %5, align 8, !tbaa !18
  %55 = load i32, ptr %10, align 4, !tbaa !8
  %56 = load ptr, ptr %5, align 8, !tbaa !18
  %57 = call i32 @Nwk_ObjLevel(ptr noundef %56)
  %58 = call i32 @Abc_MaxInt(i32 noundef %55, i32 noundef %57)
  store i32 %58, ptr %10, align 4, !tbaa !8
  br label %59

59:                                               ; preds = %47
  %60 = load i32, ptr %6, align 4, !tbaa !8
  %61 = add nsw i32 %60, 1
  store i32 %61, ptr %6, align 4, !tbaa !8
  br label %43, !llvm.loop !89

62:                                               ; preds = %43
  %63 = load i32, ptr %10, align 4, !tbaa !8
  %64 = add nsw i32 %63, 1
  store i32 %64, ptr %10, align 4, !tbaa !8
  br label %65

65:                                               ; preds = %62, %27
  br label %66

66:                                               ; preds = %65, %24
  %67 = load i32, ptr %10, align 4, !tbaa !8
  store i32 %67, ptr %2, align 4
  store i32 1, ptr %11, align 4
  br label %107

68:                                               ; preds = %20
  store i32 0, ptr %6, align 4, !tbaa !8
  br label %69

69:                                               ; preds = %91, %68
  %70 = load i32, ptr %6, align 4, !tbaa !8
  %71 = load ptr, ptr %3, align 8, !tbaa !18
  %72 = getelementptr inbounds nuw %struct.Nwk_Obj_t_, ptr %71, i32 0, i32 11
  %73 = load i32, ptr %72, align 4, !tbaa !38
  %74 = icmp slt i32 %70, %73
  br i1 %74, label %75, label %84

75:                                               ; preds = %69
  %76 = load ptr, ptr %3, align 8, !tbaa !18
  %77 = getelementptr inbounds nuw %struct.Nwk_Obj_t_, ptr %76, i32 0, i32 14
  %78 = load ptr, ptr %77, align 8, !tbaa !39
  %79 = load i32, ptr %6, align 4, !tbaa !8
  %80 = sext i32 %79 to i64
  %81 = getelementptr inbounds ptr, ptr %78, i64 %80
  %82 = load ptr, ptr %81, align 8, !tbaa !18
  store ptr %82, ptr %5, align 8, !tbaa !18
  %83 = icmp ne ptr %82, null
  br label %84

84:                                               ; preds = %75, %69
  %85 = phi i1 [ false, %69 ], [ %83, %75 ]
  br i1 %85, label %86, label %94

86:                                               ; preds = %84
  %87 = load i32, ptr %10, align 4, !tbaa !8
  %88 = load ptr, ptr %5, align 8, !tbaa !18
  %89 = call i32 @Nwk_ObjLevel(ptr noundef %88)
  %90 = call i32 @Abc_MaxInt(i32 noundef %87, i32 noundef %89)
  store i32 %90, ptr %10, align 4, !tbaa !8
  br label %91

91:                                               ; preds = %86
  %92 = load i32, ptr %6, align 4, !tbaa !8
  %93 = add nsw i32 %92, 1
  store i32 %93, ptr %6, align 4, !tbaa !8
  br label %69, !llvm.loop !90

94:                                               ; preds = %84
  %95 = load i32, ptr %10, align 4, !tbaa !8
  %96 = load ptr, ptr %3, align 8, !tbaa !18
  %97 = call i32 @Nwk_ObjIsNode(ptr noundef %96)
  %98 = icmp ne i32 %97, 0
  br i1 %98, label %99, label %103

99:                                               ; preds = %94
  %100 = load ptr, ptr %3, align 8, !tbaa !18
  %101 = call i32 @Nwk_ObjFaninNum(ptr noundef %100)
  %102 = icmp sgt i32 %101, 0
  br label %103

103:                                              ; preds = %99, %94
  %104 = phi i1 [ false, %94 ], [ %102, %99 ]
  %105 = zext i1 %104 to i32
  %106 = add nsw i32 %95, %105
  store i32 %106, ptr %2, align 4
  store i32 1, ptr %11, align 4
  br label %107

107:                                              ; preds = %103, %66
  call void @llvm.lifetime.end.p0(i64 4, ptr %10) #8
  call void @llvm.lifetime.end.p0(i64 4, ptr %9) #8
  call void @llvm.lifetime.end.p0(i64 4, ptr %8) #8
  call void @llvm.lifetime.end.p0(i64 4, ptr %7) #8
  call void @llvm.lifetime.end.p0(i64 4, ptr %6) #8
  call void @llvm.lifetime.end.p0(i64 8, ptr %5) #8
  call void @llvm.lifetime.end.p0(i64 8, ptr %4) #8
  %108 = load i32, ptr %2, align 4
  ret i32 %108
}