; Function Attrs: nounwind uwtable
define range(i32 0, -2147483648) i32 @Nwk_ObjLevelNew(ptr noundef readonly captures(none) %0) local_unnamed_addr #4 {
  %2 = load ptr, ptr %0, align 8, !tbaa !39
  %3 = getelementptr inbounds nuw i8, ptr %2, i64 72
  %4 = load ptr, ptr %3, align 8, !tbaa !57
  %5 = getelementptr i8, ptr %0, i64 32
  %.val41 = load i32, ptr %5, align 8
  %6 = and i32 %.val41, 7
  switch i32 %6, label %.preheader [
    i32 1, label %12
    i32 4, label %12
  ]

.preheader:                                       ; preds = %1
  %7 = getelementptr inbounds nuw i8, ptr %0, i64 60
  %8 = load i32, ptr %7, align 4, !tbaa !29
  %9 = icmp sgt i32 %8, 0
  br i1 %9, label %.lr.ph53, label %.critedge

.lr.ph53:                                         ; preds = %.preheader
  %10 = getelementptr inbounds nuw i8, ptr %0, i64 72
  %11 = load ptr, ptr %10, align 8, !tbaa !30
  %wide.trip.count63 = zext nneg i32 %8 to i64
  br label %30

12:                                               ; preds = %1, %1
  %.not40 = icmp eq ptr %4, null
  br i1 %.not40, label %._crit_edge, label %13

13:                                               ; preds = %12
  %14 = lshr i32 %.val41, 7
  %15 = tail call i32 @Tim_ManBoxForCi(ptr noundef nonnull %4, i32 noundef %14) #12
  %16 = icmp sgt i32 %15, -1
  br i1 %16, label %17, label %._crit_edge

17:                                               ; preds = %13
  %18 = tail call i32 @Tim_ManBoxInputFirst(ptr noundef nonnull %4, i32 noundef %15) #12
  %19 = tail call i32 @Tim_ManBoxInputNum(ptr noundef nonnull %4, i32 noundef %15) #12
  %20 = icmp sgt i32 %19, 0
  br i1 %20, label %.lr.ph, label %._crit_edge

.lr.ph:                                           ; preds = %17
  %21 = load ptr, ptr %0, align 8, !tbaa !39
  %22 = getelementptr i8, ptr %21, i64 24
  %.val45 = load ptr, ptr %22, align 8, !tbaa !59
  %23 = getelementptr i8, ptr %.val45, i64 8
  %.val45.val = load ptr, ptr %23, align 8, !tbaa !17
  %24 = sext i32 %18 to i64
  %wide.trip.count = zext nneg i32 %19 to i64
  %invariant.gep = getelementptr ptr, ptr %.val45.val, i64 %24
  br label %25

25:                                               ; preds = %.lr.ph, %25
  %indvars.iv = phi i64 [ 0, %.lr.ph ], [ %indvars.iv.next, %25 ]
  %.150 = phi i32 [ 0, %.lr.ph ], [ %28, %25 ]
  %gep = getelementptr ptr, ptr %invariant.gep, i64 %indvars.iv
  %26 = load ptr, ptr %gep, align 8, !tbaa !18
  %27 = getelementptr i8, ptr %26, i64 44
  %.val44 = load i32, ptr %27, align 4, !tbaa !68
  %28 = tail call noundef i32 @llvm.smax.i32(i32 %.150, i32 %.val44)
  %indvars.iv.next = add nuw nsw i64 %indvars.iv, 1
  %exitcond.not = icmp eq i64 %indvars.iv.next, %wide.trip.count
  br i1 %exitcond.not, label %._crit_edge.loopexit, label %25, !llvm.loop !79

._crit_edge.loopexit:                             ; preds = %25
  %29 = add nuw nsw i32 %28, 1
  br label %._crit_edge

30:                                               ; preds = %.lr.ph53, %33
  %indvars.iv60 = phi i64 [ 0, %.lr.ph53 ], [ %indvars.iv.next61, %33 ]
  %.252 = phi i32 [ 0, %.lr.ph53 ], [ %35, %33 ]
  %31 = getelementptr inbounds nuw ptr, ptr %11, i64 %indvars.iv60
  %32 = load ptr, ptr %31, align 8, !tbaa !31
  %.not38 = icmp eq ptr %32, null
  br i1 %.not38, label %.critedge, label %33

33:                                               ; preds = %30
  %34 = getelementptr i8, ptr %32, i64 44
  %.val43 = load i32, ptr %34, align 4, !tbaa !68
  %35 = tail call noundef i32 @llvm.smax.i32(i32 %.252, i32 %.val43)
  %indvars.iv.next61 = add nuw nsw i64 %indvars.iv60, 1
  %exitcond64.not = icmp eq i64 %indvars.iv.next61, %wide.trip.count63
  br i1 %exitcond64.not, label %.critedge, label %30, !llvm.loop !80

.critedge:                                        ; preds = %30, %33, %.preheader
  %.2.lcssa = phi i32 [ 0, %.preheader ], [ %35, %33 ], [ %.252, %30 ]
  %.not48 = icmp eq i32 %6, 3
  %narrow = and i1 %.not48, %9
  %36 = zext i1 %narrow to i32
  %37 = add nuw nsw i32 %.2.lcssa, %36
  br label %._crit_edge

._crit_edge:                                      ; preds = %17, %._crit_edge.loopexit, %12, %13, %.critedge
  %.031 = phi i32 [ %37, %.critedge ], [ 0, %13 ], [ 0, %12 ], [ 1, %17 ], [ %29, %._crit_edge.loopexit ]
  ret i32 %.031
}